target datalayout = "e-m:e-p270:32:32-p271:32:32-p272:64:64-i64:64-i128:128-f80:128-n8:16:32:64-S128"
target triple = "x86_64-pc-linux-gnu"

%struct.MinRegMan_t_ = type { i32, i32, i32, i32, i32, i32, i32, i32, i32, i32, i32, ptr, i32, i32, i32, i32, i32, i32, i32, i32, i32, ptr, ptr, ptr, ptr, ptr, ptr, ptr, ptr, ptr, i32 }
%struct.Vec_Int_t_ = type { i32, i32, ptr }
%struct.Abc_Obj_t_ = type { ptr, ptr, i32, i32, %struct.Vec_Int_t_, %struct.Vec_Int_t_, %union.anon.0, %union.anon.1 }
%union.anon.0 = type { ptr }
%union.anon.1 = type { ptr }
%struct.NodeLag_T_ = type { i32, i32 }

@pManMR = external global ptr, align 8

; Function Attrs: inlinehint nounwind uwtable
define internal i32 @Abc_ObjId(ptr noundef %0) #2 {
  %2 = alloca ptr, align 8
  store ptr %0, ptr %2, align 8, !tbaa !34
  %3 = load ptr, ptr %2, align 8, !tbaa !34
  %4 = getelementptr inbounds nuw %struct.Abc_Obj_t_, ptr %3, i32 0, i32 2
  %5 = load i32, ptr %4, align 8, !tbaa !59
  ret i32 %5
}

; Function Attrs: nounwind uwtable
define internal void @Abc_FlowRetime_ClearInitToOrig(ptr noundef %0) #0 {
  %2 = alloca ptr, align 8
  %3 = alloca i32, align 4
  %4 = alloca i32, align 4
  store ptr %0, ptr %2, align 8, !tbaa !34
  call void @llvm.lifetime.start.p0(i64 4, ptr %3) #10
  %5 = load ptr, ptr %2, align 8, !tbaa !34
  %6 = call i32 @Abc_ObjId(ptr noundef %5)
  store i32 %6, ptr %3, align 4, !tbaa !19
  %7 = load i32, ptr %3, align 4, !tbaa !19
  %8 = load ptr, ptr @pManMR, align 8, !tbaa !8
  %9 = getelementptr inbounds nuw %struct.MinRegMan_t_, ptr %8, i32 0, i32 30
  %10 = load i32, ptr %9, align 8, !tbaa !77
  %11 = icmp sge i32 %7, %10
  br i1 %11, label %12, label %46

12:                                               ; preds = %1
  call void @llvm.lifetime.start.p0(i64 4, ptr %4) #10
  %13 = load ptr, ptr @pManMR, align 8, !tbaa !8
  %14 = getelementptr inbounds nuw %struct.MinRegMan_t_, ptr %13, i32 0, i32 30
  %15 = load i32, ptr %14, align 8, !tbaa !77
  store i32 %15, ptr %4, align 4, !tbaa !19
  %16 = load i32, ptr %3, align 4, !tbaa !19
  %17 = sitofp i32 %16 to double
  %18 = call double @llvm.fmuladd.f64(double 1.500000e+00, double %17, double 1.000000e+01)
  %19 = fptosi double %18 to i32
  %20 = load ptr, ptr @pManMR, align 8, !tbaa !8
  %21 = getelementptr inbounds nuw %struct.MinRegMan_t_, ptr %20, i32 0, i32 30
  store i32 %19, ptr %21, align 8, !tbaa !77
  %22 = load ptr, ptr @pManMR, align 8, !tbaa !8
  %23 = getelementptr inbounds nuw %struct.MinRegMan_t_, ptr %22, i32 0, i32 29
  %24 = load ptr, ptr %23, align 8, !tbaa !78
  %25 = load ptr, ptr @pManMR, align 8, !tbaa !8
  %26 = getelementptr inbounds nuw %struct.MinRegMan_t_, ptr %25, i32 0, i32 30
  %27 = load i32, ptr %26, align 8, !tbaa !77
  %28 = sext i32 %27 to i64
  %29 = mul i64 8, %28
  %30 = call ptr @realloc(ptr noundef %24, i64 noundef %29) #12
  %31 = load ptr, ptr @pManMR, align 8, !tbaa !8
  %32 = getelementptr inbounds nuw %struct.MinRegMan_t_, ptr %31, i32 0, i32 29
  store ptr %30, ptr %32, align 8, !tbaa !78
  %33 = load ptr, ptr @pManMR, align 8, !tbaa !8
  %34 = getelementptr inbounds nuw %struct.MinRegMan_t_, ptr %33, i32 0, i32 29
  %35 = load ptr, ptr %34, align 8, !tbaa !78
  %36 = load i32, ptr %4, align 4, !tbaa !19
  %37 = sext i32 %36 to i64
  %38 = getelementptr inbounds %struct.NodeLag_T_, ptr %35, i64 %37
  %39 = load ptr, ptr @pManMR, align 8, !tbaa !8
  %40 = getelementptr inbounds nuw %struct.MinRegMan_t_, ptr %39, i32 0, i32 30
  %41 = load i32, ptr %40, align 8, !tbaa !77
  %42 = load i32, ptr %4, align 4, !tbaa !19
  %43 = sub nsw i32 %41, %42
  %44 = sext i32 %43 to i64
  %45 = mul i64 8, %44
  call void @llvm.memset.p0.i64(ptr align 4 %38, i8 0, i64 %45, i1 false)
  call void @llvm.lifetime.end.p0(i64 4, ptr %4) #10
  br label %46

46:                                               ; preds = %12, %1
  %47 = load ptr, ptr @pManMR, align 8, !tbaa !8
  %48 = getelementptr inbounds nuw %struct.MinRegMan_t_, ptr %47, i32 0, i32 29
  %49 = load ptr, ptr %48, align 8, !tbaa !78
  %50 = load i32, ptr %3, align 4, !tbaa !19
  %51 = sext i32 %50 to i64
  %52 = getelementptr inbounds %struct.NodeLag_T_, ptr %49, i64 %51
  %53 = getelementptr inbounds nuw %struct.NodeLag_T_, ptr %52, i32 0, i32 0
  store i32 -1, ptr %53, align 4, !tbaa !79
  call void @llvm.lifetime.end.p0(i64 4, ptr %3) #10
  ret void
}