; Function Attrs: mustprogress nounwind willreturn uwtable
define internal fastcc void @Abc_FlowRetime_ClearInitToOrig(i32 %.16.val) unnamed_addr #5 {
  %1 = load ptr, ptr @pManMR, align 8, !tbaa !3
  %2 = getelementptr inbounds nuw i8, ptr %1, i64 168
  %3 = load i32, ptr %2, align 8, !tbaa !54
  %.not = icmp slt i32 %.16.val, %3
  br i1 %.not, label %._crit_edge, label %4

._crit_edge:                                      ; preds = %0
  %.phi.trans.insert = getelementptr inbounds nuw i8, ptr %1, i64 160
  %.pre = load ptr, ptr %.phi.trans.insert, align 8, !tbaa !55
  br label %22

4:                                                ; preds = %0
  %5 = sitofp i32 %.16.val to double
  %6 = tail call double @llvm.fmuladd.f64(double %5, double 1.500000e+00, double 1.000000e+01)
  %7 = fptosi double %6 to i32
  store i32 %7, ptr %2, align 8, !tbaa !54
  %8 = getelementptr inbounds nuw i8, ptr %1, i64 160
  %9 = load ptr, ptr %8, align 8, !tbaa !55
  %10 = sext i32 %7 to i64
  %11 = shl nsw i64 %10, 3
  %12 = tail call ptr @realloc(ptr noundef %9, i64 noundef %11) #19
  %13 = load ptr, ptr @pManMR, align 8, !tbaa !3
  %14 = getelementptr inbounds nuw i8, ptr %13, i64 160
  store ptr %12, ptr %14, align 8, !tbaa !55
  %15 = sext i32 %3 to i64
  %16 = getelementptr inbounds %struct.NodeLag_T_, ptr %12, i64 %15
  %17 = getelementptr inbounds nuw i8, ptr %13, i64 168
  %18 = load i32, ptr %17, align 8, !tbaa !54
  %19 = sub nsw i32 %18, %3
  %20 = sext i32 %19 to i64
  %21 = shl nsw i64 %20, 3
  tail call void @llvm.memset.p0.i64(ptr align 4 %16, i8 0, i64 %21, i1 false)
  br label %22

22:                                               ; preds = %._crit_edge, %4
  %23 = phi ptr [ %12, %4 ], [ %.pre, %._crit_edge ]
  %24 = sext i32 %.16.val to i64
  %25 = getelementptr inbounds %struct.NodeLag_T_, ptr %23, i64 %24
  store i32 -1, ptr %25, align 4, !tbaa !56
  ret void
}